target datalayout = "e-m:e-p270:32:32-p271:32:32-p272:64:64-i64:64-i128:128-f80:128-n8:16:32:64-S128"
target triple = "x86_64-pc-linux-gnu"

%struct.AVCodecContext = type { ptr, i32, i32, ptr, i32, i32, ptr, ptr, ptr, i64, i32, i32, ptr, i32, %struct.AVRational, %struct.AVRational, %struct.AVRational, i32, i32, i32, i32, i32, %struct.AVRational, i32, i32, i32, i32, i32, i32, i32, i32, i32, i32, i32, ptr, ptr, i32, float, float, float, float, float, float, float, float, float, i32, i32, i32, i32, i32, i32, i32, i32, i32, i32, i32, i32, ptr, ptr, ptr, i32, i32, i32, i32, i32, i32, i32, i32, i32, i32, %struct.AVChannelLayout, i32, i32, i32, i32, i32, i32, i32, i32, ptr, i32, i32, i32, float, float, i32, i32, i32, i32, i32, ptr, i64, i64, float, float, i32, i32, ptr, ptr, i32, i32, i32, i32, i32, ptr, ptr, ptr, ptr, i32, i32, [8 x i64], i32, i32, i32, i32, i32, i32, i32, ptr, ptr, i32, i32, i32, i32, i32, i32, i32, i32, i32, i32, ptr, ptr, i32, i32, ptr, ptr, ptr, ptr, i32, i32, i64, i32, i32, i64, ptr, i64, ptr, i32, ptr, i32 }
%struct.AVRational = type { i32, i32 }
%struct.AVChannelLayout = type { i32, i32, %union.anon.0, ptr }
%union.anon.0 = type { i64 }
%struct.Hnm4VideoContext = type { i8, i32, i32, ptr, ptr, ptr, ptr, ptr, [256 x i32] }

@.str.2 = private unnamed_addr constant [52 x i8] c"Extradata missing, decoder requires version number\0A\00", align 1
@.str.3 = private unnamed_addr constant [21 x i8] c"av_mallocz() failed\0A\00", align 1

; Function Attrs: cold nounwind optsize uwtable
define internal i32 @hnm_decode_init(ptr noundef %0) #0 {
  %2 = alloca i32, align 4
  %3 = alloca ptr, align 8
  %4 = alloca ptr, align 8
  %5 = alloca i32, align 4
  %6 = alloca i32, align 4
  store ptr %0, ptr %3, align 8, !tbaa !4
  call void @llvm.lifetime.start.p0(i64 8, ptr %4) #7
  %7 = load ptr, ptr %3, align 8, !tbaa !4
  %8 = getelementptr inbounds nuw %struct.AVCodecContext, ptr %7, i32 0, i32 6
  %9 = load ptr, ptr %8, align 8, !tbaa !9
  store ptr %9, ptr %4, align 8, !tbaa !29
  call void @llvm.lifetime.start.p0(i64 4, ptr %5) #7
  %10 = load ptr, ptr %3, align 8, !tbaa !4
  %11 = getelementptr inbounds nuw %struct.AVCodecContext, ptr %10, i32 0, i32 13
  %12 = load i32, ptr %11, align 8, !tbaa !31
  %13 = icmp slt i32 %12, 1
  br i1 %13, label %14, label %16

14:                                               ; preds = %1
  %15 = load ptr, ptr %3, align 8, !tbaa !4
  call void (ptr, i32, ptr, ...) @av_log(ptr noundef %15, i32 noundef 16, ptr noundef @.str.2)
  store i32 -1094995529, ptr %2, align 4
  store i32 1, ptr %6, align 4
  br label %116

16:                                               ; preds = %1
  %17 = load ptr, ptr %3, align 8, !tbaa !4
  %18 = getelementptr inbounds nuw %struct.AVCodecContext, ptr %17, i32 0, i32 18
  %19 = load i32, ptr %18, align 8, !tbaa !32
  %20 = load ptr, ptr %3, align 8, !tbaa !4
  %21 = getelementptr inbounds nuw %struct.AVCodecContext, ptr %20, i32 0, i32 19
  %22 = load i32, ptr %21, align 4, !tbaa !33
  %23 = load ptr, ptr %3, align 8, !tbaa !4
  %24 = call i32 @av_image_check_size(i32 noundef %19, i32 noundef %22, i32 noundef 0, ptr noundef %23)
  store i32 %24, ptr %5, align 4, !tbaa !34
  %25 = load i32, ptr %5, align 4, !tbaa !34
  %26 = icmp slt i32 %25, 0
  br i1 %26, label %27, label %29

27:                                               ; preds = %16
  %28 = load i32, ptr %5, align 4, !tbaa !34
  store i32 %28, ptr %2, align 4
  store i32 1, ptr %6, align 4
  br label %116

29:                                               ; preds = %16
  %30 = load ptr, ptr %3, align 8, !tbaa !4
  %31 = getelementptr inbounds nuw %struct.AVCodecContext, ptr %30, i32 0, i32 19
  %32 = load i32, ptr %31, align 4, !tbaa !33
  %33 = and i32 %32, 1
  %34 = icmp ne i32 %33, 0
  br i1 %34, label %35, label %36

35:                                               ; preds = %29
  store i32 -22, ptr %2, align 4
  store i32 1, ptr %6, align 4
  br label %116

36:                                               ; preds = %29
  %37 = load ptr, ptr %3, align 8, !tbaa !4
  %38 = getelementptr inbounds nuw %struct.AVCodecContext, ptr %37, i32 0, i32 12
  %39 = load ptr, ptr %38, align 8, !tbaa !35
  %40 = getelementptr inbounds i8, ptr %39, i64 0
  %41 = load i8, ptr %40, align 1, !tbaa !36
  %42 = load ptr, ptr %4, align 8, !tbaa !29
  %43 = getelementptr inbounds nuw %struct.Hnm4VideoContext, ptr %42, i32 0, i32 0
  store i8 %41, ptr %43, align 8, !tbaa !37
  %44 = load ptr, ptr %3, align 8, !tbaa !4
  %45 = getelementptr inbounds nuw %struct.AVCodecContext, ptr %44, i32 0, i32 23
  store i32 11, ptr %45, align 8, !tbaa !39
  %46 = load ptr, ptr %3, align 8, !tbaa !4
  %47 = getelementptr inbounds nuw %struct.AVCodecContext, ptr %46, i32 0, i32 18
  %48 = load i32, ptr %47, align 8, !tbaa !32
  %49 = load ptr, ptr %4, align 8, !tbaa !29
  %50 = getelementptr inbounds nuw %struct.Hnm4VideoContext, ptr %49, i32 0, i32 1
  store i32 %48, ptr %50, align 4, !tbaa !40
  %51 = load ptr, ptr %3, align 8, !tbaa !4
  %52 = getelementptr inbounds nuw %struct.AVCodecContext, ptr %51, i32 0, i32 19
  %53 = load i32, ptr %52, align 4, !tbaa !33
  %54 = load ptr, ptr %4, align 8, !tbaa !29
  %55 = getelementptr inbounds nuw %struct.Hnm4VideoContext, ptr %54, i32 0, i32 2
  store i32 %53, ptr %55, align 8, !tbaa !41
  %56 = load ptr, ptr %3, align 8, !tbaa !4
  %57 = getelementptr inbounds nuw %struct.AVCodecContext, ptr %56, i32 0, i32 18
  %58 = load i32, ptr %57, align 8, !tbaa !32
  %59 = load ptr, ptr %3, align 8, !tbaa !4
  %60 = getelementptr inbounds nuw %struct.AVCodecContext, ptr %59, i32 0, i32 19
  %61 = load i32, ptr %60, align 4, !tbaa !33
  %62 = mul nsw i32 %58, %61
  %63 = sext i32 %62 to i64
  %64 = call noalias ptr @av_mallocz(i64 noundef %63)
  %65 = load ptr, ptr %4, align 8, !tbaa !29
  %66 = getelementptr inbounds nuw %struct.Hnm4VideoContext, ptr %65, i32 0, i32 5
  store ptr %64, ptr %66, align 8, !tbaa !42
  %67 = load ptr, ptr %3, align 8, !tbaa !4
  %68 = getelementptr inbounds nuw %struct.AVCodecContext, ptr %67, i32 0, i32 18
  %69 = load i32, ptr %68, align 8, !tbaa !32
  %70 = load ptr, ptr %3, align 8, !tbaa !4
  %71 = getelementptr inbounds nuw %struct.AVCodecContext, ptr %70, i32 0, i32 19
  %72 = load i32, ptr %71, align 4, !tbaa !33
  %73 = mul nsw i32 %69, %72
  %74 = sext i32 %73 to i64
  %75 = call noalias ptr @av_mallocz(i64 noundef %74)
  %76 = load ptr, ptr %4, align 8, !tbaa !29
  %77 = getelementptr inbounds nuw %struct.Hnm4VideoContext, ptr %76, i32 0, i32 6
  store ptr %75, ptr %77, align 8, !tbaa !43
  %78 = load ptr, ptr %3, align 8, !tbaa !4
  %79 = getelementptr inbounds nuw %struct.AVCodecContext, ptr %78, i32 0, i32 18
  %80 = load i32, ptr %79, align 8, !tbaa !32
  %81 = load ptr, ptr %3, align 8, !tbaa !4
  %82 = getelementptr inbounds nuw %struct.AVCodecContext, ptr %81, i32 0, i32 19
  %83 = load i32, ptr %82, align 4, !tbaa !33
  %84 = mul nsw i32 %80, %83
  %85 = sext i32 %84 to i64
  %86 = call noalias ptr @av_mallocz(i64 noundef %85)
  %87 = load ptr, ptr %4, align 8, !tbaa !29
  %88 = getelementptr inbounds nuw %struct.Hnm4VideoContext, ptr %87, i32 0, i32 7
  store ptr %86, ptr %88, align 8, !tbaa !44
  %89 = load ptr, ptr %4, align 8, !tbaa !29
  %90 = getelementptr inbounds nuw %struct.Hnm4VideoContext, ptr %89, i32 0, i32 5
  %91 = load ptr, ptr %90, align 8, !tbaa !42
  %92 = icmp ne ptr %91, null
  br i1 %92, label %93, label %103

93:                                               ; preds = %36
  %94 = load ptr, ptr %4, align 8, !tbaa !29
  %95 = getelementptr inbounds nuw %struct.Hnm4VideoContext, ptr %94, i32 0, i32 6
  %96 = load ptr, ptr %95, align 8, !tbaa !43
  %97 = icmp ne ptr %96, null
  br i1 %97, label %98, label %103

98:                                               ; preds = %93
  %99 = load ptr, ptr %4, align 8, !tbaa !29
  %100 = getelementptr inbounds nuw %struct.Hnm4VideoContext, ptr %99, i32 0, i32 7
  %101 = load ptr, ptr %100, align 8, !tbaa !44
  %102 = icmp ne ptr %101, null
  br i1 %102, label %105, label %103

103:                                              ; preds = %98, %93, %36
  %104 = load ptr, ptr %3, align 8, !tbaa !4
  call void (ptr, i32, ptr, ...) @av_log(ptr noundef %104, i32 noundef 16, ptr noundef @.str.3)
  store i32 -12, ptr %2, align 4
  store i32 1, ptr %6, align 4
  br label %116

105:                                              ; preds = %98
  %106 = load ptr, ptr %4, align 8, !tbaa !29
  %107 = getelementptr inbounds nuw %struct.Hnm4VideoContext, ptr %106, i32 0, i32 5
  %108 = load ptr, ptr %107, align 8, !tbaa !42
  %109 = load ptr, ptr %4, align 8, !tbaa !29
  %110 = getelementptr inbounds nuw %struct.Hnm4VideoContext, ptr %109, i32 0, i32 3
  store ptr %108, ptr %110, align 8, !tbaa !45
  %111 = load ptr, ptr %4, align 8, !tbaa !29
  %112 = getelementptr inbounds nuw %struct.Hnm4VideoContext, ptr %111, i32 0, i32 6
  %113 = load ptr, ptr %112, align 8, !tbaa !43
  %114 = load ptr, ptr %4, align 8, !tbaa !29
  %115 = getelementptr inbounds nuw %struct.Hnm4VideoContext, ptr %114, i32 0, i32 4
  store ptr %113, ptr %115, align 8, !tbaa !46
  store i32 0, ptr %2, align 4
  store i32 1, ptr %6, align 4
  br label %116

116:                                              ; preds = %105, %103, %35, %27, %14
  call void @llvm.lifetime.end.p0(i64 4, ptr %5) #7
  call void @llvm.lifetime.end.p0(i64 8, ptr %4) #7
  %117 = load i32, ptr %2, align 4
  ret i32 %117
}