; Function Attrs: cold nounwind optsize uwtable
define internal range(i32 -2147483648, 1) i32 @hnm_decode_init(ptr noundef %0) #0 {
  %2 = getelementptr inbounds nuw i8, ptr %0, i64 32
  %3 = load ptr, ptr %2, align 8, !tbaa !4
  %4 = getelementptr inbounds nuw i8, ptr %0, i64 80
  %5 = load i32, ptr %4, align 8, !tbaa !27
  %6 = icmp slt i32 %5, 1
  br i1 %6, label %7, label %8

7:                                                ; preds = %1
  tail call void (ptr, i32, ptr, ...) @av_log(ptr noundef nonnull %0, i32 noundef 16, ptr noundef nonnull @.str.2) #7
  br label %49

8:                                                ; preds = %1
  %9 = getelementptr inbounds nuw i8, ptr %0, i64 112
  %10 = load i32, ptr %9, align 8, !tbaa !28
  %11 = getelementptr inbounds nuw i8, ptr %0, i64 116
  %12 = load i32, ptr %11, align 4, !tbaa !29
  %13 = tail call i32 @av_image_check_size(i32 noundef %10, i32 noundef %12, i32 noundef 0, ptr noundef nonnull %0) #7
  %14 = icmp slt i32 %13, 0
  br i1 %14, label %49, label %15

15:                                               ; preds = %8
  %16 = load i32, ptr %11, align 4, !tbaa !29
  %17 = and i32 %16, 1
  %.not = icmp eq i32 %17, 0
  br i1 %.not, label %18, label %49

18:                                               ; preds = %15
  %19 = getelementptr inbounds nuw i8, ptr %0, i64 72
  %20 = load ptr, ptr %19, align 8, !tbaa !30
  %21 = load i8, ptr %20, align 1, !tbaa !31
  store i8 %21, ptr %3, align 8, !tbaa !32
  %22 = getelementptr inbounds nuw i8, ptr %0, i64 136
  store i32 11, ptr %22, align 8, !tbaa !34
  %23 = load i32, ptr %9, align 8, !tbaa !28
  %24 = getelementptr inbounds nuw i8, ptr %3, i64 4
  store i32 %23, ptr %24, align 4, !tbaa !35
  %25 = getelementptr inbounds nuw i8, ptr %3, i64 8
  store i32 %16, ptr %25, align 8, !tbaa !36
  %26 = mul nsw i32 %23, %16
  %27 = sext i32 %26 to i64
  %28 = tail call noalias ptr @av_mallocz(i64 noundef %27) #7
  %29 = getelementptr inbounds nuw i8, ptr %3, i64 32
  store ptr %28, ptr %29, align 8, !tbaa !37
  %30 = load i32, ptr %9, align 8, !tbaa !28
  %31 = load i32, ptr %11, align 4, !tbaa !29
  %32 = mul nsw i32 %31, %30
  %33 = sext i32 %32 to i64
  %34 = tail call noalias ptr @av_mallocz(i64 noundef %33) #7
  %35 = getelementptr inbounds nuw i8, ptr %3, i64 40
  store ptr %34, ptr %35, align 8, !tbaa !38
  %36 = load i32, ptr %9, align 8, !tbaa !28
  %37 = load i32, ptr %11, align 4, !tbaa !29
  %38 = mul nsw i32 %37, %36
  %39 = sext i32 %38 to i64
  %40 = tail call noalias ptr @av_mallocz(i64 noundef %39) #7
  %41 = getelementptr inbounds nuw i8, ptr %3, i64 48
  store ptr %40, ptr %41, align 8, !tbaa !39
  %42 = load ptr, ptr %29, align 8, !tbaa !37
  %.not35 = icmp eq ptr %42, null
  br i1 %.not35, label %45, label %43

43:                                               ; preds = %18
  %44 = load ptr, ptr %35, align 8, !tbaa !38
  %.not36 = icmp eq ptr %44, null
  %.not37 = icmp eq ptr %40, null
  %or.cond = select i1 %.not36, i1 true, i1 %.not37
  br i1 %or.cond, label %45, label %46

45:                                               ; preds = %43, %18
  tail call void (ptr, i32, ptr, ...) @av_log(ptr noundef nonnull %0, i32 noundef 16, ptr noundef nonnull @.str.3) #7
  br label %49

46:                                               ; preds = %43
  %47 = getelementptr inbounds nuw i8, ptr %3, i64 16
  store ptr %42, ptr %47, align 8, !tbaa !40
  %48 = getelementptr inbounds nuw i8, ptr %3, i64 24
  store ptr %44, ptr %48, align 8, !tbaa !41
  br label %49

49:                                               ; preds = %15, %8, %46, %45, %7
  %.0 = phi i32 [ -1094995529, %7 ], [ 0, %46 ], [ -12, %45 ], [ %13, %8 ], [ -22, %15 ]
  ret i32 %.0
}